target datalayout = "e-m:e-p270:32:32-p271:32:32-p272:64:64-i64:64-i128:128-f80:128-n8:16:32:64-S128"
target triple = "x86_64-pc-linux-gnu"

@_ZN7logging12_GLOBAL__N_116g_log_process_idE = internal global i8 0, align 1
@_ZN7logging12_GLOBAL__N_115g_log_thread_idE = internal global i8 0, align 1
@_ZN7logging12_GLOBAL__N_115g_log_timestampE = internal global i8 1, align 1
@_ZN7logging12_GLOBAL__N_115g_log_tickcountE = internal global i8 0, align 1

; Function Attrs: mustprogress nounwind uwtable
define void @_ZN7logging11SetLogItemsEbbbb(i1 noundef zeroext %0, i1 noundef zeroext %1, i1 noundef zeroext %2, i1 noundef zeroext %3) #5 {
  %5 = alloca i8, align 1
  %6 = alloca i8, align 1
  %7 = alloca i8, align 1
  %8 = alloca i8, align 1
  %9 = zext i1 %0 to i8
  store i8 %9, ptr %5, align 1, !tbaa !49
  %10 = zext i1 %1 to i8
  store i8 %10, ptr %6, align 1, !tbaa !49
  %11 = zext i1 %2 to i8
  store i8 %11, ptr %7, align 1, !tbaa !49
  %12 = zext i1 %3 to i8
  store i8 %12, ptr %8, align 1, !tbaa !49
  %13 = load i8, ptr %5, align 1, !tbaa !49, !range !51, !noundef !52
  %14 = trunc i8 %13 to i1
  %15 = zext i1 %14 to i8
  store i8 %15, ptr @_ZN7logging12_GLOBAL__N_116g_log_process_idE, align 1, !tbaa !49
  %16 = load i8, ptr %6, align 1, !tbaa !49, !range !51, !noundef !52
  %17 = trunc i8 %16 to i1
  %18 = zext i1 %17 to i8
  store i8 %18, ptr @_ZN7logging12_GLOBAL__N_115g_log_thread_idE, align 1, !tbaa !49
  %19 = load i8, ptr %7, align 1, !tbaa !49, !range !51, !noundef !52
  %20 = trunc i8 %19 to i1
  %21 = zext i1 %20 to i8
  store i8 %21, ptr @_ZN7logging12_GLOBAL__N_115g_log_timestampE, align 1, !tbaa !49
  %22 = load i8, ptr %8, align 1, !tbaa !49, !range !51, !noundef !52
  %23 = trunc i8 %22 to i1
  %24 = zext i1 %23 to i8
  store i8 %24, ptr @_ZN7logging12_GLOBAL__N_115g_log_tickcountE, align 1, !tbaa !49
  ret void
}