; Function Attrs: mustprogress nofree norecurse nosync nounwind willreturn memory(write, argmem: none, inaccessiblemem: none) uwtable
define void @_ZN7logging11SetLogItemsEbbbb(i1 noundef zeroext %0, i1 noundef zeroext %1, i1 noundef zeroext %2, i1 noundef zeroext %3) local_unnamed_addr #7 {
  %5 = zext i1 %0 to i8
  %6 = zext i1 %1 to i8
  %7 = zext i1 %2 to i8
  %8 = zext i1 %3 to i8
  store i8 %5, ptr @_ZN7logging12_GLOBAL__N_116g_log_process_idE, align 1, !tbaa !90
  store i8 %6, ptr @_ZN7logging12_GLOBAL__N_115g_log_thread_idE, align 1, !tbaa !90
  store i8 %7, ptr @_ZN7logging12_GLOBAL__N_115g_log_timestampE, align 1, !tbaa !90
  store i8 %8, ptr @_ZN7logging12_GLOBAL__N_115g_log_tickcountE, align 1, !tbaa !90
  ret void
}